; Function Attrs: mustprogress nofree norecurse nosync nounwind memory(read, argmem: readwrite, inaccessiblemem: none) uwtable
define hidden noundef zeroext i1 @_ZN19bv2int_rewriter_ctx9is_power2EP4exprRS1_(ptr noundef nonnull readonly align 8 captures(none) dereferenceable(64) %0, ptr noundef readonly captures(address) %1, ptr noundef nonnull writeonly align 8 captures(none) dereferenceable(8) %2) local_unnamed_addr #7 align 2 {
  %4 = getelementptr inbounds nuw i8, ptr %0, i64 24
  %5 = getelementptr inbounds nuw i8, ptr %1, i64 12
  %6 = load i32, ptr %5, align 4, !tbaa !94
  %7 = getelementptr inbounds nuw i8, ptr %0, i64 32
  %8 = load i32, ptr %7, align 8, !tbaa !95
  %9 = add i32 %8, -1
  %10 = and i32 %9, %6
  %11 = load ptr, ptr %4, align 8, !tbaa !96
  %12 = zext i32 %10 to i64
  %13 = getelementptr inbounds nuw %"class.obj_map<expr, expr *>::obj_map_entry", ptr %11, i64 %12
  %14 = zext i32 %8 to i64
  %15 = getelementptr inbounds nuw %"class.obj_map<expr, expr *>::obj_map_entry", ptr %11, i64 %14
  %.not35.i.i.i = icmp eq i32 %10, %8
  br i1 %.not35.i.i.i, label %.preheader.i.i.i, label %.lr.ph.i.i.i

.preheader.i.i.i:                                 ; preds = %22, %3
  %.not2737.i.i.i = icmp eq i32 %10, 0
  br i1 %.not2737.i.i.i, label %_ZNK7obj_mapI4exprPS0_E4findES1_RS1_.exit, label %.lr.ph39.i.i.i

.lr.ph.i.i.i:                                     ; preds = %3, %22
  %.036.i.i.i = phi ptr [ %23, %22 ], [ %13, %3 ]
  %16 = load ptr, ptr %.036.i.i.i, align 8, !tbaa !97
  %magicptr30.i.i.i = ptrtoint ptr %16 to i64
  switch i64 %magicptr30.i.i.i, label %17 [
    i64 0, label %_ZNK7obj_mapI4exprPS0_E4findES1_RS1_.exit
    i64 1, label %22
  ]

17:                                               ; preds = %.lr.ph.i.i.i
  %18 = getelementptr inbounds nuw i8, ptr %16, i64 12
  %19 = load i32, ptr %18, align 4, !tbaa !94
  %20 = icmp eq i32 %19, %6
  %21 = icmp eq ptr %16, %1
  %or.cond.i.i.i = and i1 %21, %20
  br i1 %or.cond.i.i.i, label %_ZNK7obj_mapI4exprPS0_E9find_coreES1_.exit.i, label %22

22:                                               ; preds = %17, %.lr.ph.i.i.i
  %23 = getelementptr inbounds nuw i8, ptr %.036.i.i.i, i64 16
  %.not.i.i.i = icmp eq ptr %23, %15
  br i1 %.not.i.i.i, label %.preheader.i.i.i, label %.lr.ph.i.i.i, !llvm.loop !99

.lr.ph39.i.i.i:                                   ; preds = %.preheader.i.i.i, %30
  %.138.i.i.i = phi ptr [ %31, %30 ], [ %11, %.preheader.i.i.i ]
  %24 = load ptr, ptr %.138.i.i.i, align 8, !tbaa !97
  %magicptr32.i.i.i = ptrtoint ptr %24 to i64
  switch i64 %magicptr32.i.i.i, label %25 [
    i64 0, label %_ZNK7obj_mapI4exprPS0_E4findES1_RS1_.exit
    i64 1, label %30
  ]

25:                                               ; preds = %.lr.ph39.i.i.i
  %26 = getelementptr inbounds nuw i8, ptr %24, i64 12
  %27 = load i32, ptr %26, align 4, !tbaa !94
  %28 = icmp eq i32 %27, %6
  %29 = icmp eq ptr %24, %1
  %or.cond31.i.i.i = and i1 %29, %28
  br i1 %or.cond31.i.i.i, label %_ZNK7obj_mapI4exprPS0_E9find_coreES1_.exit.i, label %30

30:                                               ; preds = %25, %.lr.ph39.i.i.i
  %31 = getelementptr inbounds nuw i8, ptr %.138.i.i.i, i64 16
  %.not27.i.i.i = icmp eq ptr %31, %13
  br i1 %.not27.i.i.i, label %_ZNK7obj_mapI4exprPS0_E4findES1_RS1_.exit, label %.lr.ph39.i.i.i, !llvm.loop !100

_ZNK7obj_mapI4exprPS0_E9find_coreES1_.exit.i:     ; preds = %17, %25
  %.026.i.i.i = phi ptr [ %.138.i.i.i, %25 ], [ %.036.i.i.i, %17 ]
  %32 = getelementptr inbounds nuw i8, ptr %.026.i.i.i, i64 8
  %33 = load ptr, ptr %32, align 8, !tbaa !91
  store ptr %33, ptr %2, align 8, !tbaa !66
  br label %_ZNK7obj_mapI4exprPS0_E4findES1_RS1_.exit

_ZNK7obj_mapI4exprPS0_E4findES1_RS1_.exit:        ; preds = %.lr.ph.i.i.i, %.lr.ph39.i.i.i, %30, %.preheader.i.i.i, %_ZNK7obj_mapI4exprPS0_E9find_coreES1_.exit.i
  %34 = phi i1 [ true, %_ZNK7obj_mapI4exprPS0_E9find_coreES1_.exit.i ], [ false, %.preheader.i.i.i ], [ false, %30 ], [ false, %.lr.ph39.i.i.i ], [ false, %.lr.ph.i.i.i ]
  ret i1 %34
}